(i__main__
LogFile
p0
(dp1
S'_installed_files'
p2
(dp3
S'../../InnerDetector/InDetMonitoring/SCT_Monitoring/genConf/SCT_Monitoring'
p4
(dp5
S'../../../InnerDetector/InDetMonitoring/SCT_Monitoring/genConf/SCT_Monitoring/SCT_MonitoringConf.py'
p6
S'../../../../InstallArea/python/SCT_Monitoring/SCT_MonitoringConf.py'
p7
ssS'../../../../../../../../../../../cvmfs/atlas.cern.ch/repo/sw/software/x86_64-slc6-gcc49-opt/20.7.5/GAUDI/v26r2p1-lcg81c/GaudiPolicy/cmt/fragments/__init__.py'
p8
S'../../../../InstallArea/python/SCT_Monitoring/__init__.py'
p9
ssb.